target datalayout = "e-m:e-p270:32:32-p271:32:32-p272:64:64-i64:64-i128:128-f80:128-n8:16:32:64-S128"
target triple = "x86_64-pc-linux-gnu"

%"class.OpenColorIO_v2_5dev::RangeOpCPU" = type { %"class.OpenColorIO_v2_5dev::OpCPU", float, float, float, float }
%"class.OpenColorIO_v2_5dev::OpCPU" = type { ptr }

; Function Attrs: inlinehint mustprogress nounwind uwtable
define linkonce_odr noundef nonnull align 4 dereferenceable(4) ptr @_ZSt3minIfERKT_S2_S2_(ptr noundef nonnull align 4 dereferenceable(4) %0, ptr noundef nonnull align 4 dereferenceable(4) %1) #7 comdat {
  %3 = alloca ptr, align 8
  %4 = alloca ptr, align 8
  %5 = alloca ptr, align 8
  store ptr %0, ptr %4, align 8, !tbaa !56
  store ptr %1, ptr %5, align 8, !tbaa !56
  %6 = load ptr, ptr %5, align 8, !tbaa !56
  %7 = load float, ptr %6, align 4, !tbaa !58
  %8 = load ptr, ptr %4, align 8, !tbaa !56
  %9 = load float, ptr %8, align 4, !tbaa !58
  %10 = fcmp olt float %7, %9
  br i1 %10, label %11, label %13

11:                                               ; preds = %2
  %12 = load ptr, ptr %5, align 8, !tbaa !56
  store ptr %12, ptr %3, align 8
  br label %15

13:                                               ; preds = %2
  %14 = load ptr, ptr %4, align 8, !tbaa !56
  store ptr %14, ptr %3, align 8
  br label %15

15:                                               ; preds = %13, %11
  %16 = load ptr, ptr %3, align 8
  ret ptr %16
}

; Function Attrs: inlinehint mustprogress nounwind uwtable
define linkonce_odr noundef nonnull align 4 dereferenceable(4) ptr @_ZSt3maxIfERKT_S2_S2_(ptr noundef nonnull align 4 dereferenceable(4) %0, ptr noundef nonnull align 4 dereferenceable(4) %1) #7 comdat {
  %3 = alloca ptr, align 8
  %4 = alloca ptr, align 8
  %5 = alloca ptr, align 8
  store ptr %0, ptr %4, align 8, !tbaa !56
  store ptr %1, ptr %5, align 8, !tbaa !56
  %6 = load ptr, ptr %4, align 8, !tbaa !56
  %7 = load float, ptr %6, align 4, !tbaa !58
  %8 = load ptr, ptr %5, align 8, !tbaa !56
  %9 = load float, ptr %8, align 4, !tbaa !58
  %10 = fcmp olt float %7, %9
  br i1 %10, label %11, label %13

11:                                               ; preds = %2
  %12 = load ptr, ptr %5, align 8, !tbaa !56
  store ptr %12, ptr %3, align 8
  br label %15

13:                                               ; preds = %2
  %14 = load ptr, ptr %4, align 8, !tbaa !56
  store ptr %14, ptr %3, align 8
  br label %15

15:                                               ; preds = %13, %11
  %16 = load ptr, ptr %3, align 8
  ret ptr %16
}

; Function Attrs: inlinehint mustprogress nounwind uwtable
define linkonce_odr hidden noundef float @_ZN19OpenColorIO_v2_5dev5ClampIfEET_S1_S1_S1_(float noundef %0, float noundef %1, float noundef %2) #7 comdat {
  %4 = alloca float, align 4
  %5 = alloca float, align 4
  %6 = alloca float, align 4
  store float %0, ptr %4, align 4, !tbaa !58
  store float %1, ptr %5, align 4, !tbaa !58
  store float %2, ptr %6, align 4, !tbaa !58
  %7 = call noundef nonnull align 4 dereferenceable(4) ptr @_ZSt3maxIfERKT_S2_S2_(ptr noundef nonnull align 4 dereferenceable(4) %5, ptr noundef nonnull align 4 dereferenceable(4) %4)
  %8 = call noundef nonnull align 4 dereferenceable(4) ptr @_ZSt3minIfERKT_S2_S2_(ptr noundef nonnull align 4 dereferenceable(4) %7, ptr noundef nonnull align 4 dereferenceable(4) %6)
  %9 = load float, ptr %8, align 4, !tbaa !58
  ret float %9
}

; Function Attrs: mustprogress uwtable
define hidden void @_ZNK19OpenColorIO_v2_5dev24RangeScaleMinMaxRenderer5applyEPKvPvl(ptr noundef nonnull align 8 dereferenceable(24) %0, ptr noundef %1, ptr noundef %2, i64 noundef %3) unnamed_addr #4 align 2 {
  %5 = alloca ptr, align 8
  %6 = alloca ptr, align 8
  %7 = alloca ptr, align 8
  %8 = alloca i64, align 8
  %9 = alloca ptr, align 8
  %10 = alloca ptr, align 8
  %11 = alloca i64, align 8
  %12 = alloca [3 x float], align 4
  store ptr %0, ptr %5, align 8, !tbaa !52
  store ptr %1, ptr %6, align 8, !tbaa !54
  store ptr %2, ptr %7, align 8, !tbaa !54
  store i64 %3, ptr %8, align 8, !tbaa !55
  %13 = load ptr, ptr %5, align 8
  call void @llvm.lifetime.start.p0(i64 8, ptr %9) #3
  %14 = load ptr, ptr %6, align 8, !tbaa !54
  store ptr %14, ptr %9, align 8, !tbaa !56
  call void @llvm.lifetime.start.p0(i64 8, ptr %10) #3
  %15 = load ptr, ptr %7, align 8, !tbaa !54
  store ptr %15, ptr %10, align 8, !tbaa !56
  call void @llvm.lifetime.start.p0(i64 8, ptr %11) #3
  store i64 0, ptr %11, align 8, !tbaa !55
  br label %16

16:                                               ; preds = %84, %4
  %17 = load i64, ptr %11, align 8, !tbaa !55
  %18 = load i64, ptr %8, align 8, !tbaa !55
  %19 = icmp slt i64 %17, %18
  br i1 %19, label %21, label %20

20:                                               ; preds = %16
  call void @llvm.lifetime.end.p0(i64 8, ptr %11) #3
  br label %87

21:                                               ; preds = %16
  call void @llvm.lifetime.start.p0(i64 12, ptr %12) #3
  %22 = load ptr, ptr %9, align 8, !tbaa !56
  %23 = getelementptr inbounds float, ptr %22, i64 0
  %24 = load float, ptr %23, align 4, !tbaa !58
  %25 = getelementptr inbounds nuw %"class.OpenColorIO_v2_5dev::RangeOpCPU", ptr %13, i32 0, i32 1
  %26 = load float, ptr %25, align 8, !tbaa !12
  %27 = getelementptr inbounds nuw %"class.OpenColorIO_v2_5dev::RangeOpCPU", ptr %13, i32 0, i32 2
  %28 = load float, ptr %27, align 4, !tbaa !16
  %29 = call float @llvm.fmuladd.f32(float %24, float %26, float %28)
  store float %29, ptr %12, align 4, !tbaa !58
  %30 = getelementptr inbounds float, ptr %12, i64 1
  %31 = load ptr, ptr %9, align 8, !tbaa !56
  %32 = getelementptr inbounds float, ptr %31, i64 1
  %33 = load float, ptr %32, align 4, !tbaa !58
  %34 = getelementptr inbounds nuw %"class.OpenColorIO_v2_5dev::RangeOpCPU", ptr %13, i32 0, i32 1
  %35 = load float, ptr %34, align 8, !tbaa !12
  %36 = getelementptr inbounds nuw %"class.OpenColorIO_v2_5dev::RangeOpCPU", ptr %13, i32 0, i32 2
  %37 = load float, ptr %36, align 4, !tbaa !16
  %38 = call float @llvm.fmuladd.f32(float %33, float %35, float %37)
  store float %38, ptr %30, align 4, !tbaa !58
  %39 = getelementptr inbounds float, ptr %12, i64 2
  %40 = load ptr, ptr %9, align 8, !tbaa !56
  %41 = getelementptr inbounds float, ptr %40, i64 2
  %42 = load float, ptr %41, align 4, !tbaa !58
  %43 = getelementptr inbounds nuw %"class.OpenColorIO_v2_5dev::RangeOpCPU", ptr %13, i32 0, i32 1
  %44 = load float, ptr %43, align 8, !tbaa !12
  %45 = getelementptr inbounds nuw %"class.OpenColorIO_v2_5dev::RangeOpCPU", ptr %13, i32 0, i32 2
  %46 = load float, ptr %45, align 4, !tbaa !16
  %47 = call float @llvm.fmuladd.f32(float %42, float %44, float %46)
  store float %47, ptr %39, align 4, !tbaa !58
  %48 = getelementptr inbounds [3 x float], ptr %12, i64 0, i64 0
  %49 = load float, ptr %48, align 4, !tbaa !58
  %50 = getelementptr inbounds nuw %"class.OpenColorIO_v2_5dev::RangeOpCPU", ptr %13, i32 0, i32 3
  %51 = load float, ptr %50, align 8, !tbaa !17
  %52 = getelementptr inbounds nuw %"class.OpenColorIO_v2_5dev::RangeOpCPU", ptr %13, i32 0, i32 4
  %53 = load float, ptr %52, align 4, !tbaa !18
  %54 = call noundef float @_ZN19OpenColorIO_v2_5dev5ClampIfEET_S1_S1_S1_(float noundef %49, float noundef %51, float noundef %53)
  %55 = load ptr, ptr %10, align 8, !tbaa !56
  %56 = getelementptr inbounds float, ptr %55, i64 0
  store float %54, ptr %56, align 4, !tbaa !58
  %57 = getelementptr inbounds [3 x float], ptr %12, i64 0, i64 1
  %58 = load float, ptr %57, align 4, !tbaa !58
  %59 = getelementptr inbounds nuw %"class.OpenColorIO_v2_5dev::RangeOpCPU", ptr %13, i32 0, i32 3
  %60 = load float, ptr %59, align 8, !tbaa !17
  %61 = getelementptr inbounds nuw %"class.OpenColorIO_v2_5dev::RangeOpCPU", ptr %13, i32 0, i32 4
  %62 = load float, ptr %61, align 4, !tbaa !18
  %63 = call noundef float @_ZN19OpenColorIO_v2_5dev5ClampIfEET_S1_S1_S1_(float noundef %58, float noundef %60, float noundef %62)
  %64 = load ptr, ptr %10, align 8, !tbaa !56
  %65 = getelementptr inbounds float, ptr %64, i64 1
  store float %63, ptr %65, align 4, !tbaa !58
  %66 = getelementptr inbounds [3 x float], ptr %12, i64 0, i64 2
  %67 = load float, ptr %66, align 4, !tbaa !58
  %68 = getelementptr inbounds nuw %"class.OpenColorIO_v2_5dev::RangeOpCPU", ptr %13, i32 0, i32 3
  %69 = load float, ptr %68, align 8, !tbaa !17
  %70 = getelementptr inbounds nuw %"class.OpenColorIO_v2_5dev::RangeOpCPU", ptr %13, i32 0, i32 4
  %71 = load float, ptr %70, align 4, !tbaa !18
  %72 = call noundef float @_ZN19OpenColorIO_v2_5dev5ClampIfEET_S1_S1_S1_(float noundef %67, float noundef %69, float noundef %71)
  %73 = load ptr, ptr %10, align 8, !tbaa !56
  %74 = getelementptr inbounds float, ptr %73, i64 2
  store float %72, ptr %74, align 4, !tbaa !58
  %75 = load ptr, ptr %9, align 8, !tbaa !56
  %76 = getelementptr inbounds float, ptr %75, i64 3
  %77 = load float, ptr %76, align 4, !tbaa !58
  %78 = load ptr, ptr %10, align 8, !tbaa !56
  %79 = getelementptr inbounds float, ptr %78, i64 3
  store float %77, ptr %79, align 4, !tbaa !58
  %80 = load ptr, ptr %9, align 8, !tbaa !56
  %81 = getelementptr inbounds float, ptr %80, i64 4
  store ptr %81, ptr %9, align 8, !tbaa !56
  %82 = load ptr, ptr %10, align 8, !tbaa !56
  %83 = getelementptr inbounds float, ptr %82, i64 4
  store ptr %83, ptr %10, align 8, !tbaa !56
  call void @llvm.lifetime.end.p0(i64 12, ptr %12) #3
  br label %84

84:                                               ; preds = %21
  %85 = load i64, ptr %11, align 8, !tbaa !55
  %86 = add nsw i64 %85, 1
  store i64 %86, ptr %11, align 8, !tbaa !55
  br label %16, !llvm.loop !59

87:                                               ; preds = %20
  call void @llvm.lifetime.end.p0(i64 8, ptr %10) #3
  call void @llvm.lifetime.end.p0(i64 8, ptr %9) #3
  ret void
}