; Function Attrs: mustprogress nofree norecurse nosync nounwind memory(argmem: readwrite) uwtable
define hidden void @_ZNK19OpenColorIO_v2_5dev24RangeScaleMinMaxRenderer5applyEPKvPvl(ptr noundef nonnull readonly align 8 captures(none) dereferenceable(24) %0, ptr noundef readonly captures(none) %1, ptr noundef writeonly captures(none) %2, i64 noundef %3) unnamed_addr #5 align 2 {
  %5 = icmp sgt i64 %3, 0
  br i1 %5, label %.lr.ph, label %._crit_edge

.lr.ph:                                           ; preds = %4
  %6 = getelementptr inbounds nuw i8, ptr %0, i64 8
  %7 = getelementptr inbounds nuw i8, ptr %0, i64 12
  %8 = getelementptr inbounds nuw i8, ptr %0, i64 16
  %9 = getelementptr inbounds nuw i8, ptr %0, i64 20
  br label %10

._crit_edge:                                      ; preds = %10, %4
  ret void

10:                                               ; preds = %.lr.ph, %10
  %.023 = phi ptr [ %1, %.lr.ph ], [ %38, %10 ]
  %.01522 = phi ptr [ %2, %.lr.ph ], [ %39, %10 ]
  %.01621 = phi i64 [ 0, %.lr.ph ], [ %40, %10 ]
  %11 = load float, ptr %.023, align 4, !tbaa !47
  %12 = load float, ptr %6, align 8, !tbaa !37
  %13 = load float, ptr %7, align 4, !tbaa !42
  %14 = tail call float @llvm.fmuladd.f32(float %11, float %12, float %13)
  %15 = getelementptr inbounds nuw i8, ptr %.023, i64 4
  %16 = load float, ptr %15, align 4, !tbaa !47
  %17 = tail call float @llvm.fmuladd.f32(float %16, float %12, float %13)
  %18 = getelementptr inbounds nuw i8, ptr %.023, i64 8
  %19 = load float, ptr %18, align 4, !tbaa !47
  %20 = tail call float @llvm.fmuladd.f32(float %19, float %12, float %13)
  %21 = load float, ptr %8, align 8, !tbaa !44
  %22 = load float, ptr %9, align 4, !tbaa !46
  %23 = fcmp olt float %21, %14
  %.sroa.speculated2.i = select i1 %23, float %14, float %21
  %24 = fcmp olt float %22, %.sroa.speculated2.i
  %.sroa.speculated.i = select i1 %24, float %22, float %.sroa.speculated2.i
  store float %.sroa.speculated.i, ptr %.01522, align 4, !tbaa !47
  %25 = load float, ptr %8, align 8, !tbaa !44
  %26 = load float, ptr %9, align 4, !tbaa !46
  %27 = fcmp olt float %25, %17
  %.sroa.speculated2.i17 = select i1 %27, float %17, float %25
  %28 = fcmp olt float %26, %.sroa.speculated2.i17
  %.sroa.speculated.i18 = select i1 %28, float %26, float %.sroa.speculated2.i17
  %29 = getelementptr inbounds nuw i8, ptr %.01522, i64 4
  store float %.sroa.speculated.i18, ptr %29, align 4, !tbaa !47
  %30 = load float, ptr %8, align 8, !tbaa !44
  %31 = load float, ptr %9, align 4, !tbaa !46
  %32 = fcmp olt float %30, %20
  %.sroa.speculated2.i19 = select i1 %32, float %20, float %30
  %33 = fcmp olt float %31, %.sroa.speculated2.i19
  %.sroa.speculated.i20 = select i1 %33, float %31, float %.sroa.speculated2.i19
  %34 = getelementptr inbounds nuw i8, ptr %.01522, i64 8
  store float %.sroa.speculated.i20, ptr %34, align 4, !tbaa !47
  %35 = getelementptr inbounds nuw i8, ptr %.023, i64 12
  %36 = load float, ptr %35, align 4, !tbaa !47
  %37 = getelementptr inbounds nuw i8, ptr %.01522, i64 12
  store float %36, ptr %37, align 4, !tbaa !47
  %38 = getelementptr inbounds nuw i8, ptr %.023, i64 16
  %39 = getelementptr inbounds nuw i8, ptr %.01522, i64 16
  %40 = add nuw nsw i64 %.01621, 1
  %exitcond.not = icmp eq i64 %40, %3
  br i1 %exitcond.not, label %._crit_edge, label %10, !llvm.loop !48
}